target datalayout = "e-m:e-p270:32:32-p271:32:32-p272:64:64-i64:64-i128:128-f80:128-n8:16:32:64-S128"
target triple = "x86_64-pc-linux-gnu"

%struct.SDL_Environment = type { ptr, ptr }

@environ = external global ptr, align 8

; Function Attrs: nounwind uwtable
define hidden ptr @SDL_CreateEnvironment_REAL(i1 noundef zeroext %0) #0 {
  %2 = alloca ptr, align 8
  %3 = alloca i8, align 1
  %4 = alloca ptr, align 8
  %5 = alloca i32, align 4
  %6 = alloca ptr, align 8
  %7 = alloca i32, align 4
  %8 = alloca ptr, align 8
  %9 = alloca ptr, align 8
  %10 = zext i1 %0 to i8
  store i8 %10, ptr %3, align 1
  call void @llvm.lifetime.start.p0(i64 8, ptr %4) #7
  %11 = call noalias ptr @SDL_calloc_REAL(i64 noundef 1, i64 noundef 16) #8
  store ptr %11, ptr %4, align 8
  %12 = load ptr, ptr %4, align 8
  %13 = icmp ne ptr %12, null
  br i1 %13, label %15, label %14

14:                                               ; preds = %1
  store ptr null, ptr %2, align 8
  store i32 1, ptr %5, align 4
  br label %85

15:                                               ; preds = %1
  %16 = call ptr @SDL_CreateHashTable(i32 noundef 0, i1 noundef zeroext false, ptr noundef @SDL_HashString, ptr noundef @SDL_KeyMatchString, ptr noundef @SDL_DestroyHashKey, ptr noundef null)
  %17 = load ptr, ptr %4, align 8
  %18 = getelementptr inbounds nuw %struct.SDL_Environment, ptr %17, i32 0, i32 1
  store ptr %16, ptr %18, align 8
  %19 = load ptr, ptr %4, align 8
  %20 = getelementptr inbounds nuw %struct.SDL_Environment, ptr %19, i32 0, i32 1
  %21 = load ptr, ptr %20, align 8
  %22 = icmp ne ptr %21, null
  br i1 %22, label %25, label %23

23:                                               ; preds = %15
  %24 = load ptr, ptr %4, align 8
  call void @SDL_free_REAL(ptr noundef %24)
  store ptr null, ptr %2, align 8
  store i32 1, ptr %5, align 4
  br label %85

25:                                               ; preds = %15
  %26 = call ptr @SDL_CreateMutex_REAL()
  %27 = load ptr, ptr %4, align 8
  %28 = getelementptr inbounds nuw %struct.SDL_Environment, ptr %27, i32 0, i32 0
  store ptr %26, ptr %28, align 8
  %29 = load i8, ptr %3, align 1, !range !3, !noundef !4
  %30 = trunc i8 %29 to i1
  br i1 %30, label %31, label %83

31:                                               ; preds = %25
  call void @llvm.lifetime.start.p0(i64 8, ptr %6) #7
  %32 = load ptr, ptr @environ, align 8
  store ptr %32, ptr %6, align 8
  %33 = load ptr, ptr %6, align 8
  %34 = icmp ne ptr %33, null
  br i1 %34, label %35, label %82

35:                                               ; preds = %31
  call void @llvm.lifetime.start.p0(i64 4, ptr %7) #7
  store i32 0, ptr %7, align 4
  br label %36

36:                                               ; preds = %78, %35
  %37 = load ptr, ptr %6, align 8
  %38 = load i32, ptr %7, align 4
  %39 = sext i32 %38 to i64
  %40 = getelementptr inbounds ptr, ptr %37, i64 %39
  %41 = load ptr, ptr %40, align 8
  %42 = icmp ne ptr %41, null
  br i1 %42, label %44, label %43

43:                                               ; preds = %36
  store i32 2, ptr %5, align 4
  call void @llvm.lifetime.end.p0(i64 4, ptr %7) #7
  br label %81

44:                                               ; preds = %36
  call void @llvm.lifetime.start.p0(i64 8, ptr %8) #7
  %45 = load ptr, ptr %6, align 8
  %46 = load i32, ptr %7, align 4
  %47 = sext i32 %46 to i64
  %48 = getelementptr inbounds ptr, ptr %45, i64 %47
  %49 = load ptr, ptr %48, align 8
  %50 = call noalias ptr @SDL_strdup_REAL(ptr noundef %49)
  store ptr %50, ptr %8, align 8
  %51 = load ptr, ptr %8, align 8
  %52 = icmp ne ptr %51, null
  br i1 %52, label %54, label %53

53:                                               ; preds = %44
  store i32 4, ptr %5, align 4
  br label %75

54:                                               ; preds = %44
  call void @llvm.lifetime.start.p0(i64 8, ptr %9) #7
  %55 = load ptr, ptr %8, align 8
  %56 = call ptr @SDL_strchr_REAL(ptr noundef %55, i32 noundef 61)
  store ptr %56, ptr %9, align 8
  %57 = load ptr, ptr %9, align 8
  %58 = icmp ne ptr %57, null
  br i1 %58, label %59, label %63

59:                                               ; preds = %54
  %60 = load ptr, ptr %9, align 8
  %61 = load ptr, ptr %8, align 8
  %62 = icmp eq ptr %60, %61
  br i1 %62, label %63, label %65

63:                                               ; preds = %59, %54
  %64 = load ptr, ptr %8, align 8
  call void @SDL_free_REAL(ptr noundef %64)
  store i32 4, ptr %5, align 4
  br label %74

65:                                               ; preds = %59
  %66 = load ptr, ptr %9, align 8
  %67 = getelementptr inbounds nuw i8, ptr %66, i32 1
  store ptr %67, ptr %9, align 8
  store i8 0, ptr %66, align 1
  %68 = load ptr, ptr %4, align 8
  %69 = getelementptr inbounds nuw %struct.SDL_Environment, ptr %68, i32 0, i32 1
  %70 = load ptr, ptr %69, align 8
  %71 = load ptr, ptr %8, align 8
  %72 = load ptr, ptr %9, align 8
  %73 = call zeroext i1 @SDL_InsertIntoHashTable(ptr noundef %70, ptr noundef %71, ptr noundef %72, i1 noundef zeroext true)
  store i32 0, ptr %5, align 4
  br label %74

74:                                               ; preds = %65, %63
  call void @llvm.lifetime.end.p0(i64 8, ptr %9) #7
  br label %75

75:                                               ; preds = %74, %53
  call void @llvm.lifetime.end.p0(i64 8, ptr %8) #7
  %76 = load i32, ptr %5, align 4
  switch i32 %76, label %87 [
    i32 0, label %77
    i32 4, label %78
  ]

77:                                               ; preds = %75
  br label %78

78:                                               ; preds = %77, %75
  %79 = load i32, ptr %7, align 4
  %80 = add nsw i32 %79, 1
  store i32 %80, ptr %7, align 4
  br label %36, !llvm.loop !5

81:                                               ; preds = %43
  br label %82

82:                                               ; preds = %81, %31
  call void @llvm.lifetime.end.p0(i64 8, ptr %6) #7
  br label %83

83:                                               ; preds = %82, %25
  %84 = load ptr, ptr %4, align 8
  store ptr %84, ptr %2, align 8
  store i32 1, ptr %5, align 4
  br label %85

85:                                               ; preds = %83, %23, %14
  call void @llvm.lifetime.end.p0(i64 8, ptr %4) #7
  %86 = load ptr, ptr %2, align 8
  ret ptr %86

87:                                               ; preds = %75
  unreachable
}