; Function Attrs: nounwind uwtable
define hidden noundef ptr @SDL_CreateEnvironment_REAL(i1 noundef zeroext %0) local_unnamed_addr #0 {
  %2 = tail call noalias dereferenceable_or_null(16) ptr @SDL_calloc_REAL(i64 noundef 1, i64 noundef 16) #10
  %.not = icmp eq ptr %2, null
  br i1 %.not, label %.loopexit, label %3

3:                                                ; preds = %1
  %4 = tail call ptr @SDL_CreateHashTable(i32 noundef 0, i1 noundef zeroext false, ptr noundef nonnull @SDL_HashString, ptr noundef nonnull @SDL_KeyMatchString, ptr noundef nonnull @SDL_DestroyHashKey, ptr noundef null) #11
  %5 = getelementptr inbounds nuw i8, ptr %2, i64 8
  store ptr %4, ptr %5, align 8
  %.not29 = icmp eq ptr %4, null
  br i1 %.not29, label %6, label %7

6:                                                ; preds = %3
  tail call void @SDL_free_REAL(ptr noundef nonnull %2) #11
  br label %.loopexit

7:                                                ; preds = %3
  %8 = tail call ptr @SDL_CreateMutex_REAL() #11
  store ptr %8, ptr %2, align 8
  br i1 %0, label %9, label %.loopexit

9:                                                ; preds = %7
  %10 = load ptr, ptr @environ, align 8
  %.not30 = icmp eq ptr %10, null
  br i1 %.not30, label %.loopexit, label %.preheader

.preheader:                                       ; preds = %9
  %11 = load ptr, ptr %10, align 8
  %.not3134 = icmp eq ptr %11, null
  br i1 %.not3134, label %.loopexit, label %.lr.ph

.lr.ph:                                           ; preds = %.preheader, %21
  %indvars.iv = phi i64 [ %indvars.iv.next, %21 ], [ 0, %.preheader ]
  %12 = phi ptr [ %23, %21 ], [ %11, %.preheader ]
  %13 = tail call noalias ptr @SDL_strdup_REAL(ptr noundef nonnull %12) #11
  %.not32 = icmp eq ptr %13, null
  br i1 %.not32, label %21, label %14

14:                                               ; preds = %.lr.ph
  %15 = tail call ptr @SDL_strchr_REAL(ptr noundef nonnull %13, i32 noundef 61) #11
  %.not33 = icmp eq ptr %15, null
  %16 = icmp eq ptr %15, %13
  %or.cond = or i1 %.not33, %16
  br i1 %or.cond, label %17, label %18

17:                                               ; preds = %14
  tail call void @SDL_free_REAL(ptr noundef nonnull %13) #11
  br label %21

18:                                               ; preds = %14
  %19 = getelementptr inbounds nuw i8, ptr %15, i64 1
  store i8 0, ptr %15, align 1
  %20 = tail call zeroext i1 @SDL_InsertIntoHashTable(ptr noundef nonnull %4, ptr noundef nonnull %13, ptr noundef nonnull %19, i1 noundef zeroext true) #11
  br label %21

21:                                               ; preds = %17, %18, %.lr.ph
  %indvars.iv.next = add nuw nsw i64 %indvars.iv, 1
  %22 = getelementptr inbounds nuw ptr, ptr %10, i64 %indvars.iv.next
  %23 = load ptr, ptr %22, align 8
  %.not31 = icmp eq ptr %23, null
  br i1 %.not31, label %.loopexit, label %.lr.ph, !llvm.loop !3

.loopexit:                                        ; preds = %21, %.preheader, %7, %9, %1, %6
  %.0 = phi ptr [ null, %6 ], [ null, %1 ], [ %2, %9 ], [ %2, %7 ], [ %2, %.preheader ], [ %2, %21 ]
  ret ptr %.0
}